{
   Example_Runner_UninterestingCallReactionMap_Still_Reachable
   Memcheck:Leak
   match-leak-kinds: reachable
   fun:_Znwm
   fun:_ZN7testing12_GLOBAL__N_128UninterestingCallReactionMapEv
   fun:_ZN7testing12_GLOBAL__N_131SetReactionOnUninterestingCallsEmNS_8internal12CallReactionE
   fun:_ZN7testing4Mock23AllowUninterestingCallsEm
   fun:_ZN7testing8internal12NiceMockImplIN17Information_Model7testing10DeviceMockEEC1Ev
   fun:_ZN7testing8NiceMockIN17Information_Model7testing10DeviceMockEEC1IRKNSt7__cxx1112basic_stringIcSt11char_traitsIcESaIcEEENS2_12FullMetaInfoEJEEEOT_OT0_DpOT1_
   fun:_ZSt11make_uniqueIN7testing8NiceMockIN17Information_Model7testing10DeviceMockEEEJRKNSt7__cxx1112basic_stringIcSt11char_traitsIcESaIcEEENS3_12FullMetaInfoEEENSt8__detail9_MakeUniqIT_E15__single_objectEDpOT0_
   fun:_ZN17Information_Model7testing11MockBuilder13setDeviceInfoERKNSt7__cxx1112basic_stringIcSt11char_traitsIcESaIcEEERKNS_9BuildInfoE
   fun:_Z10makeDevicev
   fun:main
}
{
   Example_Runner_Hashtable_CallReaction_Still_Reachable
   Memcheck:Leak
   match-leak-kinds: reachable
   fun:_Znwm
   fun:_ZNSt15__new_allocatorIPNSt8__detail15_Hash_node_baseEE8allocateEmPKv
   fun:_ZNSt16allocator_traitsISaIPNSt8__detail15_Hash_node_baseEEE8allocateERS3_m
   fun:_ZNSt8__detail16_Hashtable_allocISaINS_10_Hash_nodeISt4pairIKmN7testing8internal12CallReactionEELb0EEEEE19_M_allocate_bucketsEm
   fun:_ZNSt10_HashtableImSt4pairIKmN7testing8internal12CallReactionEESaIS5_ENSt8__detail10_Select1stESt8equal_toImESt4hashImENS7_18_Mod_range_hashingENS7_20_Default_ranged_hashENS7_20_Prime_rehash_policyENS7_17_Hashtable_traitsILb0ELb0ELb1EEEE19_M_allocate_bucketsEm
   fun:_ZNSt10_HashtableImSt4pairIKmN7testing8internal12CallReactionEESaIS5_ENSt8__detail10_Select1stESt8equal_toImESt4hashImENS7_18_Mod_range_hashingENS7_20_Default_ranged_hashENS7_20_Prime_rehash_policyENS7_17_Hashtable_traitsILb0ELb0ELb1EEEE13_M_rehash_auxEmSt17integral_constantIbLb1EE
   fun:_ZNSt10_HashtableImSt4pairIKmN7testing8internal12CallReactionEESaIS5_ENSt8__detail10_Select1stESt8equal_toImESt4hashImENS7_18_Mod_range_hashingENS7_20_Default_ranged_hashENS7_20_Prime_rehash_policyENS7_17_Hashtable_traitsILb0ELb0ELb1EEEE9_M_rehashEmRS1_
   fun:_ZNSt10_HashtableImSt4pairIKmN7testing8internal12CallReactionEESaIS5_ENSt8__detail10_Select1stESt8equal_toImESt4hashImENS7_18_Mod_range_hashingENS7_20_Default_ranged_hashENS7_20_Prime_rehash_policyENS7_17_Hashtable_traitsILb0ELb0ELb1EEEE21_M_insert_unique_nodeEmmPNS7_10_Hash_nodeIS5_Lb0EEEm
   fun:_ZNSt8__detail9_Map_baseImSt4pairIKmN7testing8internal12CallReactionEESaIS6_ENS_10_Select1stESt8equal_toImESt4hashImENS_18_Mod_range_hashingENS_20_Default_ranged_hashENS_20_Prime_rehash_policyENS_17_Hashtable_traitsILb0ELb0ELb1EEELb1EEixERS2_
   fun:_ZNSt13unordered_mapImN7testing8internal12CallReactionESt4hashImESt8equal_toImESaISt4pairIKmS2_EEEixERS8_
   fun:_ZN7testing12_GLOBAL__N_131SetReactionOnUninterestingCallsEmNS_8internal12CallReactionE
   fun:_ZN7testing4Mock23AllowUninterestingCallsEm
   fun:_ZN7testing8internal12NiceMockImplIN17Information_Model7testing11ElementMockEEC1Ev
   fun:_ZN7testing8NiceMockIN17Information_Model7testing11ElementMockEEC1IRKSt7variantIJSt10shared_ptrINS1_5GroupEES7_INS1_8ReadableEES7_INS1_8WritableEES7_INS1_10ObservableEES7_INS1_8CallableEEEERKNSt7__cxx1112basic_stringIcSt11char_traitsIcESaIcEEEJNS2_12FullMetaInfoEEEEOT_OT0_DpOT1_
   fun:_ZSt10_ConstructIN7testing8NiceMockIN17Information_Model7testing11ElementMockEEEJRKSt7variantIJSt10shared_ptrINS2_5GroupEES7_INS2_8ReadableEES7_INS2_8WritableEES7_INS2_10ObservableEES7_INS2_8CallableEEEERKNSt7__cxx1112basic_stringIcSt11char_traitsIcESaIcEEENS3_12FullMetaInfoEEEvPT_DpOT0_
   fun:_ZNSt16allocator_traitsISaIvEE9constructIN7testing8NiceMockIN17Information_Model7testing11ElementMockEEEJRKSt7variantIJSt10shared_ptrINS5_5GroupEESA_INS5_8ReadableEESA_INS5_8WritableEESA_INS5_10ObservableEESA_INS5_8CallableEEEERKNSt7__cxx1112basic_stringIcSt11char_traitsIcESaIcEEENS6_12FullMetaInfoEEEEvRS0_PT_DpOT0_
   fun:_ZNSt23_Sp_counted_ptr_inplaceIN7testing8NiceMockIN17Information_Model7testing11ElementMockEEESaIvELN9__gnu_cxx12_Lock_policyE2EEC1IJRKSt7variantIJSt10shared_ptrINS2_5GroupEESC_INS2_8ReadableEESC_INS2_8WritableEESC_INS2_10ObservableEESC_INS2_8CallableEEEERKNSt7__cxx1112basic_stringIcSt11char_traitsIcESaIcEEENS3_12FullMetaInfoEEEES6_DpOT_
   fun:_ZNSt14__shared_countILN9__gnu_cxx12_Lock_policyE2EEC1IN7testing8NiceMockIN17Information_Model7testing11ElementMockEEESaIvEJRKSt7variantIJSt10shared_ptrINS6_5GroupEESC_INS6_8ReadableEESC_INS6_8WritableEESC_INS6_10ObservableEESC_INS6_8CallableEEEERKNSt7__cxx1112basic_stringIcSt11char_traitsIcESaIcEEENS7_12FullMetaInfoEEEERPT_St20_Sp_alloc_shared_tagIT0_EDpOT1_
   fun:_ZNSt12__shared_ptrIN7testing8NiceMockIN17Information_Model7testing11ElementMockEEELN9__gnu_cxx12_Lock_policyE2EEC1ISaIvEJRKSt7variantIJSt10shared_ptrINS2_5GroupEESC_INS2_8ReadableEESC_INS2_8WritableEESC_INS2_10ObservableEESC_INS2_8CallableEEEERKNSt7__cxx1112basic_stringIcSt11char_traitsIcESaIcEEENS3_12FullMetaInfoEEEESt20_Sp_alloc_shared_tagIT_EDpOT0_
   fun:_ZNSt10shared_ptrIN7testing8NiceMockIN17Information_Model7testing11ElementMockEEEEC1ISaIvEJRKSt7variantIJS_INS2_5GroupEES_INS2_8ReadableEES_INS2_8WritableEES_INS2_10ObservableEES_INS2_8CallableEEEERKNSt7__cxx1112basic_stringIcSt11char_traitsIcESaIcEEENS3_12FullMetaInfoEEEESt20_Sp_alloc_shared_tagIT_EDpOT0_
   fun:_ZSt11make_sharedIN7testing8NiceMockIN17Information_Model7testing11ElementMockEEEJRKSt7variantIJSt10shared_ptrINS2_5GroupEES7_INS2_8ReadableEES7_INS2_8WritableEES7_INS2_10ObservableEES7_INS2_8CallableEEEERKNSt7__cxx1112basic_stringIcSt11char_traitsIcESaIcEEENS3_12FullMetaInfoEEES7_INSt9enable_ifIXntsrSt8is_arrayIT_E5valueESW_E4typeEEDpOT0_
   fun:_ZN17Information_Model7testing11MockBuilder14addElementMockERKSt7variantIJSt10shared_ptrINS_5GroupEES3_INS_8ReadableEES3_INS_8WritableEES3_INS_10ObservableEES3_INS_8CallableEEEERKNSt7__cxx1112basic_stringIcSt11char_traitsIcESaIcEEERKNS_9BuildInfoE
   fun:_ZN17Information_Model7testing11MockBuilder11addCallableERKNSt7__cxx1112basic_stringIcSt11char_traitsIcESaIcEEERKNS_9BuildInfoENS_8DataTypeERKSt8functionIFvRKSt13unordered_mapImSt8optionalISt7variantIJblmdNS_9TimestampESt6vectorIhSaIhEES7_EEESt4hashImESt8equal_toImESaISt4pairIKmSN_EEEEERKSE_IFNS_12ResultFutureESY_EERKSE_IFvmEERKSF_ImNS_13ParameterTypeESP_SR_SaISS_IST_S1C_EEE
   fun:_ZN17Information_Model7testing11MockBuilder11addCallableERKNS_9BuildInfoENS_8DataTypeERKSt8functionIFvRKSt13unordered_mapImSt8optionalISt7variantIJblmdNS_9TimestampESt6vectorIhSaIhEENSt7__cxx1112basic_stringIcSt11char_traitsIcESaIcEEEEEESt4hashImESt8equal_toImESaISt4pairIKmSL_EEEEERKS6_IFNS_12ResultFutureESW_EERKS6_IFvmEERKS7_ImNS_13ParameterTypeESN_SP_SaISQ_ISR_S1A_EEE
   fun:_Z10makeDevicev
   fun:main
}
{
   GTest_UninterestingCallReactionMap_Still_Reachable
   Memcheck:Leak
   match-leak-kinds: reachable
   fun:_Znwm
   fun:_ZN7testing12_GLOBAL__N_128UninterestingCallReactionMapEv
   fun:_ZN7testing12_GLOBAL__N_131SetReactionOnUninterestingCallsEmNS_8internal12CallReactionE
   fun:_ZN7testing4Mock23AllowUninterestingCallsEm
   fun:_ZN7testing8internal12NiceMockImplIN17Information_Model7testing12ReadableMockEEC1Ev
   fun:_ZN7testing8NiceMockIN17Information_Model7testing12ReadableMockEEC1IRNS1_8DataTypeEEEOT_
   fun:_ZSt10_ConstructIN7testing8NiceMockIN17Information_Model7testing12ReadableMockEEEJRNS2_8DataTypeEEEvPT_DpOT0_
   fun:_ZNSt16allocator_traitsISaIvEE9constructIN7testing8NiceMockIN17Information_Model7testing12ReadableMockEEEJRNS5_8DataTypeEEEEvRS0_PT_DpOT0_
   fun:_ZNSt23_Sp_counted_ptr_inplaceIN7testing8NiceMockIN17Information_Model7testing12ReadableMockEEESaIvELN9__gnu_cxx12_Lock_policyE2EEC1IJRNS2_8DataTypeEEEES6_DpOT_
   fun:_ZNSt14__shared_countILN9__gnu_cxx12_Lock_policyE2EEC1IN7testing8NiceMockIN17Information_Model7testing12ReadableMockEEESaIvEJRNS6_8DataTypeEEEERPT_St20_Sp_alloc_shared_tagIT0_EDpOT1_
   fun:_ZNSt12__shared_ptrIN7testing8NiceMockIN17Information_Model7testing12ReadableMockEEELN9__gnu_cxx12_Lock_policyE2EEC1ISaIvEJRNS2_8DataTypeEEEESt20_Sp_alloc_shared_tagIT_EDpOT0_
   fun:_ZNSt10shared_ptrIN7testing8NiceMockIN17Information_Model7testing12ReadableMockEEEEC1ISaIvEJRNS2_8DataTypeEEEESt20_Sp_alloc_shared_tagIT_EDpOT0_
   fun:_ZSt11make_sharedIN7testing8NiceMockIN17Information_Model7testing12ReadableMockEEEJRNS2_8DataTypeEEESt10shared_ptrINSt9enable_ifIXntsrSt8is_arrayIT_E5valueESB_E4typeEEDpOT0_
   fun:_ZN17Information_Model7testing14ObservableMockC1ENS_8DataTypeE
   fun:_ZSt10_ConstructIN17Information_Model7testing14ObservableMockEJNS0_8DataTypeEEEvPT_DpOT0_
   fun:_ZNSt16allocator_traitsISaIvEE9constructIN17Information_Model7testing14ObservableMockEJNS3_8DataTypeEEEEvRS0_PT_DpOT0_
   fun:_ZNSt23_Sp_counted_ptr_inplaceIN17Information_Model7testing14ObservableMockESaIvELN9__gnu_cxx12_Lock_policyE2EEC1IJNS0_8DataTypeEEEES3_DpOT_
   fun:_ZNSt14__shared_countILN9__gnu_cxx12_Lock_policyE2EEC1IN17Information_Model7testing14ObservableMockESaIvEJNS4_8DataTypeEEEERPT_St20_Sp_alloc_shared_tagIT0_EDpOT1_
   fun:_ZNSt12__shared_ptrIN17Information_Model7testing14ObservableMockELN9__gnu_cxx12_Lock_policyE2EEC1ISaIvEJNS0_8DataTypeEEEESt20_Sp_alloc_shared_tagIT_EDpOT0_
   fun:_ZNSt10shared_ptrIN17Information_Model7testing14ObservableMockEEC1ISaIvEJNS0_8DataTypeEEEESt20_Sp_alloc_shared_tagIT_EDpOT0_
   fun:_ZSt11make_sharedIN17Information_Model7testing14ObservableMockEJNS0_8DataTypeEEESt10shared_ptrINSt9enable_ifIXntsrSt8is_arrayIT_E5valueES7_E4typeEEDpOT0_
   fun:_ZN17Information_Model7testingL51gtest_ElementTestsValuesElementTests_EvalGenerator_Ev
   fun:_ZN7testing8internal26ParameterizedTestSuiteInfoIN17Information_Model7testing12ElementTestsEE13RegisterTestsEv
   fun:_ZN7testing8internal30ParameterizedTestSuiteRegistry13RegisterTestsEv
   fun:_ZN7testing8internal12UnitTestImpl26RegisterParameterizedTestsEv
   fun:_ZN7testing8internal12UnitTestImpl19PostFlagParsingInitEv
   fun:_ZN7testing8internal18InitGoogleTestImplIcEEvPiPPT_
   fun:_ZN7testing14InitGoogleTestEPiPPc
   fun:main
}
{
   GTest_Hashtable_CallReaction_Still_Reachable
   Memcheck:Leak
   match-leak-kinds: reachable
   fun:_Znwm
   fun:_ZNSt15__new_allocatorIPNSt8__detail15_Hash_node_baseEE8allocateEmPKv
   fun:_ZNSt16allocator_traitsISaIPNSt8__detail15_Hash_node_baseEEE8allocateERS3_m
   fun:_ZNSt8__detail16_Hashtable_allocISaINS_10_Hash_nodeISt4pairIKmN7testing8internal12CallReactionEELb0EEEEE19_M_allocate_bucketsEm
   fun:_ZNSt10_HashtableImSt4pairIKmN7testing8internal12CallReactionEESaIS5_ENSt8__detail10_Select1stESt8equal_toImESt4hashImENS7_18_Mod_range_hashingENS7_20_Default_ranged_hashENS7_20_Prime_rehash_policyENS7_17_Hashtable_traitsILb0ELb0ELb1EEEE19_M_allocate_bucketsEm
   fun:_ZNSt10_HashtableImSt4pairIKmN7testing8internal12CallReactionEESaIS5_ENSt8__detail10_Select1stESt8equal_toImESt4hashImENS7_18_Mod_range_hashingENS7_20_Default_ranged_hashENS7_20_Prime_rehash_policyENS7_17_Hashtable_traitsILb0ELb0ELb1EEEE13_M_rehash_auxEmSt17integral_constantIbLb1EE
   fun:_ZNSt10_HashtableImSt4pairIKmN7testing8internal12CallReactionEESaIS5_ENSt8__detail10_Select1stESt8equal_toImESt4hashImENS7_18_Mod_range_hashingENS7_20_Default_ranged_hashENS7_20_Prime_rehash_policyENS7_17_Hashtable_traitsILb0ELb0ELb1EEEE9_M_rehashEmRS1_
   fun:_ZNSt10_HashtableImSt4pairIKmN7testing8internal12CallReactionEESaIS5_ENSt8__detail10_Select1stESt8equal_toImESt4hashImENS7_18_Mod_range_hashingENS7_20_Default_ranged_hashENS7_20_Prime_rehash_policyENS7_17_Hashtable_traitsILb0ELb0ELb1EEEE21_M_insert_unique_nodeEmmPNS7_10_Hash_nodeIS5_Lb0EEEm
   fun:_ZNSt8__detail9_Map_baseImSt4pairIKmN7testing8internal12CallReactionEESaIS6_ENS_10_Select1stESt8equal_toImESt4hashImENS_18_Mod_range_hashingENS_20_Default_ranged_hashENS_20_Prime_rehash_policyENS_17_Hashtable_traitsILb0ELb0ELb1EEELb1EEixERS2_
   fun:_ZNSt13unordered_mapImN7testing8internal12CallReactionESt4hashImESt8equal_toImESaISt4pairIKmS2_EEEixERS8_
   fun:_ZN7testing12_GLOBAL__N_131SetReactionOnUninterestingCallsEmNS_8internal12CallReactionE
   fun:_ZN7testing4Mock23AllowUninterestingCallsEm
   fun:_ZN7testing8internal12NiceMockImplIN17Information_Model7testing11ElementMockEEC1Ev
   fun:_ZN7testing8NiceMockIN17Information_Model7testing11ElementMockEEC1IRKSt7variantIJSt10shared_ptrINS1_5GroupEES7_INS1_8ReadableEES7_INS1_8WritableEES7_INS1_10ObservableEES7_INS1_8CallableEEEERKNSt7__cxx1112basic_stringIcSt11char_traitsIcESaIcEEEJNS2_12FullMetaInfoEEEEOT_OT0_DpOT1_
   fun:_ZSt10_ConstructIN7testing8NiceMockIN17Information_Model7testing11ElementMockEEEJRKSt7variantIJSt10shared_ptrINS2_5GroupEES7_INS2_8ReadableEES7_INS2_8WritableEES7_INS2_10ObservableEES7_INS2_8CallableEEEERKNSt7__cxx1112basic_stringIcSt11char_traitsIcESaIcEEENS3_12FullMetaInfoEEEvPT_DpOT0_
   fun:_ZNSt16allocator_traitsISaIvEE9constructIN7testing8NiceMockIN17Information_Model7testing11ElementMockEEEJRKSt7variantIJSt10shared_ptrINS5_5GroupEESA_INS5_8ReadableEESA_INS5_8WritableEESA_INS5_10ObservableEESA_INS5_8CallableEEEERKNSt7__cxx1112basic_stringIcSt11char_traitsIcESaIcEEENS6_12FullMetaInfoEEEEvRS0_PT_DpOT0_
   fun:_ZNSt23_Sp_counted_ptr_inplaceIN7testing8NiceMockIN17Information_Model7testing11ElementMockEEESaIvELN9__gnu_cxx12_Lock_policyE2EEC1IJRKSt7variantIJSt10shared_ptrINS2_5GroupEESC_INS2_8ReadableEESC_INS2_8WritableEESC_INS2_10ObservableEESC_INS2_8CallableEEEERKNSt7__cxx1112basic_stringIcSt11char_traitsIcESaIcEEENS3_12FullMetaInfoEEEES6_DpOT_
   fun:_ZNSt14__shared_countILN9__gnu_cxx12_Lock_policyE2EEC1IN7testing8NiceMockIN17Information_Model7testing11ElementMockEEESaIvEJRKSt7variantIJSt10shared_ptrINS6_5GroupEESC_INS6_8ReadableEESC_INS6_8WritableEESC_INS6_10ObservableEESC_INS6_8CallableEEEERKNSt7__cxx1112basic_stringIcSt11char_traitsIcESaIcEEENS7_12FullMetaInfoEEEERPT_St20_Sp_alloc_shared_tagIT0_EDpOT1_
   fun:_ZNSt12__shared_ptrIN7testing8NiceMockIN17Information_Model7testing11ElementMockEEELN9__gnu_cxx12_Lock_policyE2EEC1ISaIvEJRKSt7variantIJSt10shared_ptrINS2_5GroupEESC_INS2_8ReadableEESC_INS2_8WritableEESC_INS2_10ObservableEESC_INS2_8CallableEEEERKNSt7__cxx1112basic_stringIcSt11char_traitsIcESaIcEEENS3_12FullMetaInfoEEEESt20_Sp_alloc_shared_tagIT_EDpOT0_
   fun:_ZNSt10shared_ptrIN7testing8NiceMockIN17Information_Model7testing11ElementMockEEEEC1ISaIvEJRKSt7variantIJS_INS2_5GroupEES_INS2_8ReadableEES_INS2_8WritableEES_INS2_10ObservableEES_INS2_8CallableEEEERKNSt7__cxx1112basic_stringIcSt11char_traitsIcESaIcEEENS3_12FullMetaInfoEEEESt20_Sp_alloc_shared_tagIT_EDpOT0_
   fun:_ZSt11make_sharedIN7testing8NiceMockIN17Information_Model7testing11ElementMockEEEJRKSt7variantIJSt10shared_ptrINS2_5GroupEES7_INS2_8ReadableEES7_INS2_8WritableEES7_INS2_10ObservableEES7_INS2_8CallableEEEERKNSt7__cxx1112basic_stringIcSt11char_traitsIcESaIcEEENS3_12FullMetaInfoEEES7_INSt9enable_ifIXntsrSt8is_arrayIT_E5valueESW_E4typeEEDpOT0_
   fun:_ZN17Information_Model7testing11MockBuilder14addElementMockERKSt7variantIJSt10shared_ptrINS_5GroupEES3_INS_8ReadableEES3_INS_8WritableEES3_INS_10ObservableEES3_INS_8CallableEEEERKNSt7__cxx1112basic_stringIcSt11char_traitsIcESaIcEEERKNS_9BuildInfoE
   fun:_ZN17Information_Model7testing11MockBuilder13addObservableERKNSt7__cxx1112basic_stringIcSt11char_traitsIcESaIcEEERKNS_9BuildInfoENS_8DataTypeERKSt8functionIFSt7variantIJblmdNS_9TimestampESt6vectorIhSaIhEES7_EEvEERKSE_IFvbEE
   fun:_ZN17Information_Model7testing38MockBuilderTests_returnsCorrectID_Test8TestBodyEv
   fun:_ZN7testing8internal38HandleSehExceptionsInMethodIfSupportedINS_4TestEvEET0_PT_MS4_FS3_vEPKc
   fun:_ZN7testing8internal35HandleExceptionsInMethodIfSupportedINS_4TestEvEET0_PT_MS4_FS3_vEPKc
   fun:_ZN7testing4Test3RunEv
   fun:_ZN7testing8TestInfo3RunEv
   fun:_ZN7testing9TestSuite3RunEv
   fun:_ZN7testing8internal12UnitTestImpl11RunAllTestsEv
   fun:_ZN7testing8internal38HandleSehExceptionsInMethodIfSupportedINS0_12UnitTestImplEbEET0_PT_MS4_FS3_vEPKc
   fun:_ZN7testing8internal35HandleExceptionsInMethodIfSupportedINS0_12UnitTestImplEbEET0_PT_MS4_FS3_vEPKc
   fun:_ZN7testing8UnitTest3RunEv
   fun:_Z13RUN_ALL_TESTSv
   fun:main
}